target datalayout = "e-m:e-p270:32:32-p271:32:32-p272:64:64-i64:64-i128:128-f80:128-n8:16:32:64-S128"
target triple = "x86_64-pc-linux-gnu"

%struct.dlist_node = type { ptr, ptr }
%struct.dsm_segment = type { %struct.dlist_node, ptr, i32, i32, ptr, ptr, i64, %struct.slist_head }
%struct.slist_head = type { %struct.slist_node }
%struct.slist_node = type { ptr }
%struct.dsm_segment_detach_callback = type { ptr, i64, %struct.slist_node }
%struct.slist_mutable_iter = type { ptr, ptr, ptr }

; Function Attrs: inlinehint nounwind uwtable
define internal void @slist_delete_current(ptr noundef %0) #4 {
  %2 = alloca ptr, align 8
  store ptr %0, ptr %2, align 8
  %3 = load ptr, ptr %2, align 8
  %4 = getelementptr inbounds nuw %struct.slist_mutable_iter, ptr %3, i32 0, i32 1
  %5 = load ptr, ptr %4, align 8
  %6 = load ptr, ptr %2, align 8
  %7 = getelementptr inbounds nuw %struct.slist_mutable_iter, ptr %6, i32 0, i32 2
  %8 = load ptr, ptr %7, align 8
  %9 = getelementptr inbounds nuw %struct.slist_node, ptr %8, i32 0, i32 0
  store ptr %5, ptr %9, align 8
  %10 = load ptr, ptr %2, align 8
  %11 = getelementptr inbounds nuw %struct.slist_mutable_iter, ptr %10, i32 0, i32 2
  %12 = load ptr, ptr %11, align 8
  %13 = load ptr, ptr %2, align 8
  %14 = getelementptr inbounds nuw %struct.slist_mutable_iter, ptr %13, i32 0, i32 0
  store ptr %12, ptr %14, align 8
  ret void
}

; Function Attrs: nounwind uwtable
define dso_local void @cancel_on_dsm_detach(ptr noundef %0, ptr noundef %1, i64 noundef %2) #0 {
  %4 = alloca ptr, align 8
  %5 = alloca ptr, align 8
  %6 = alloca i64, align 8
  %7 = alloca %struct.slist_mutable_iter, align 8
  %8 = alloca i32, align 4
  %9 = alloca i32, align 4
  %10 = alloca ptr, align 8
  %11 = alloca i32, align 4
  %12 = alloca i32, align 4
  %13 = alloca i32, align 4
  store ptr %0, ptr %4, align 8
  store ptr %1, ptr %5, align 8
  store i64 %2, ptr %6, align 8
  call void @llvm.lifetime.start.p0(i64 24, ptr %7) #8
  br label %14

14:                                               ; preds = %3
  br label %15

15:                                               ; preds = %14
  br label %16

16:                                               ; preds = %15
  store i32 1, ptr %8, align 4
  br label %17

17:                                               ; preds = %16
  br label %18

18:                                               ; preds = %17
  br label %19

19:                                               ; preds = %18
  store i32 1, ptr %9, align 4
  %20 = load ptr, ptr %4, align 8
  %21 = getelementptr inbounds nuw %struct.dsm_segment, ptr %20, i32 0, i32 7
  %22 = getelementptr inbounds nuw %struct.slist_head, ptr %21, i32 0, i32 0
  %23 = getelementptr inbounds nuw %struct.slist_mutable_iter, ptr %7, i32 0, i32 2
  store ptr %22, ptr %23, align 8
  %24 = getelementptr inbounds nuw %struct.slist_mutable_iter, ptr %7, i32 0, i32 2
  %25 = load ptr, ptr %24, align 8
  %26 = getelementptr inbounds nuw %struct.slist_node, ptr %25, i32 0, i32 0
  %27 = load ptr, ptr %26, align 8
  %28 = getelementptr inbounds nuw %struct.slist_mutable_iter, ptr %7, i32 0, i32 0
  store ptr %27, ptr %28, align 8
  %29 = getelementptr inbounds nuw %struct.slist_mutable_iter, ptr %7, i32 0, i32 0
  %30 = load ptr, ptr %29, align 8
  %31 = icmp ne ptr %30, null
  br i1 %31, label %32, label %37

32:                                               ; preds = %19
  %33 = getelementptr inbounds nuw %struct.slist_mutable_iter, ptr %7, i32 0, i32 0
  %34 = load ptr, ptr %33, align 8
  %35 = getelementptr inbounds nuw %struct.slist_node, ptr %34, i32 0, i32 0
  %36 = load ptr, ptr %35, align 8
  br label %38

37:                                               ; preds = %19
  br label %38

38:                                               ; preds = %37, %32
  %39 = phi ptr [ %36, %32 ], [ null, %37 ]
  %40 = getelementptr inbounds nuw %struct.slist_mutable_iter, ptr %7, i32 0, i32 1
  store ptr %39, ptr %40, align 8
  br label %41

41:                                               ; preds = %88, %38
  %42 = getelementptr inbounds nuw %struct.slist_mutable_iter, ptr %7, i32 0, i32 0
  %43 = load ptr, ptr %42, align 8
  %44 = icmp ne ptr %43, null
  br i1 %44, label %45, label %91

45:                                               ; preds = %41
  call void @llvm.lifetime.start.p0(i64 8, ptr %10) #8
  br label %46

46:                                               ; preds = %45
  br label %47

47:                                               ; preds = %46
  br label %48

48:                                               ; preds = %47
  store i32 1, ptr %11, align 4
  br label %49

49:                                               ; preds = %48
  br label %50

50:                                               ; preds = %49
  br label %51

51:                                               ; preds = %50
  store i32 1, ptr %12, align 4
  %52 = getelementptr inbounds nuw %struct.slist_mutable_iter, ptr %7, i32 0, i32 0
  %53 = load ptr, ptr %52, align 8
  %54 = getelementptr inbounds i8, ptr %53, i64 -16
  store ptr %54, ptr %10, align 8
  %55 = load ptr, ptr %10, align 8
  %56 = getelementptr inbounds nuw %struct.dsm_segment_detach_callback, ptr %55, i32 0, i32 0
  %57 = load ptr, ptr %56, align 8
  %58 = load ptr, ptr %5, align 8
  %59 = icmp eq ptr %57, %58
  br i1 %59, label %60, label %68

60:                                               ; preds = %51
  %61 = load ptr, ptr %10, align 8
  %62 = getelementptr inbounds nuw %struct.dsm_segment_detach_callback, ptr %61, i32 0, i32 1
  %63 = load i64, ptr %62, align 8
  %64 = load i64, ptr %6, align 8
  %65 = icmp eq i64 %63, %64
  br i1 %65, label %66, label %68

66:                                               ; preds = %60
  call void @slist_delete_current(ptr noundef %7)
  %67 = load ptr, ptr %10, align 8
  call void @pfree(ptr noundef %67)
  store i32 2, ptr %13, align 4
  br label %69

68:                                               ; preds = %60, %51
  store i32 0, ptr %13, align 4
  br label %69

69:                                               ; preds = %68, %66
  call void @llvm.lifetime.end.p0(i64 8, ptr %10) #8
  %70 = load i32, ptr %13, align 4
  switch i32 %70, label %92 [
    i32 0, label %71
    i32 2, label %91
  ]

71:                                               ; preds = %69
  br label %72

72:                                               ; preds = %71
  %73 = getelementptr inbounds nuw %struct.slist_mutable_iter, ptr %7, i32 0, i32 0
  %74 = load ptr, ptr %73, align 8
  %75 = getelementptr inbounds nuw %struct.slist_mutable_iter, ptr %7, i32 0, i32 2
  store ptr %74, ptr %75, align 8
  %76 = getelementptr inbounds nuw %struct.slist_mutable_iter, ptr %7, i32 0, i32 1
  %77 = load ptr, ptr %76, align 8
  %78 = getelementptr inbounds nuw %struct.slist_mutable_iter, ptr %7, i32 0, i32 0
  store ptr %77, ptr %78, align 8
  %79 = getelementptr inbounds nuw %struct.slist_mutable_iter, ptr %7, i32 0, i32 1
  %80 = load ptr, ptr %79, align 8
  %81 = icmp ne ptr %80, null
  br i1 %81, label %82, label %87

82:                                               ; preds = %72
  %83 = getelementptr inbounds nuw %struct.slist_mutable_iter, ptr %7, i32 0, i32 1
  %84 = load ptr, ptr %83, align 8
  %85 = getelementptr inbounds nuw %struct.slist_node, ptr %84, i32 0, i32 0
  %86 = load ptr, ptr %85, align 8
  br label %88

87:                                               ; preds = %72
  br label %88

88:                                               ; preds = %87, %82
  %89 = phi ptr [ %86, %82 ], [ null, %87 ]
  %90 = getelementptr inbounds nuw %struct.slist_mutable_iter, ptr %7, i32 0, i32 1
  store ptr %89, ptr %90, align 8
  br label %41, !llvm.loop !19

91:                                               ; preds = %69, %41
  call void @llvm.lifetime.end.p0(i64 24, ptr %7) #8
  ret void

92:                                               ; preds = %69
  unreachable
}