; Function Attrs: nounwind uwtable
define dso_local void @cancel_on_dsm_detach(ptr noundef captures(none) %0, ptr noundef readnone captures(address) %1, i64 noundef %2) local_unnamed_addr #0 {
  %4 = getelementptr inbounds nuw i8, ptr %0, i64 56
  %5 = load ptr, ptr %4, align 8
  %.not = icmp eq ptr %5, null
  br i1 %.not, label %.loopexit, label %.lr.ph

.lr.ph:                                           ; preds = %3, %16
  %storemerge23.sink = phi ptr [ %6, %16 ], [ %5, %3 ]
  %.sroa.10.021 = phi ptr [ %storemerge23.sink, %16 ], [ %4, %3 ]
  %6 = load ptr, ptr %storemerge23.sink, align 8
  %7 = getelementptr inbounds i8, ptr %storemerge23.sink, i64 -16
  %8 = load ptr, ptr %7, align 8
  %9 = icmp eq ptr %8, %1
  br i1 %9, label %10, label %16

10:                                               ; preds = %.lr.ph
  %11 = getelementptr inbounds i8, ptr %storemerge23.sink, i64 -8
  %12 = load i64, ptr %11, align 8
  %13 = icmp eq i64 %12, %2
  br i1 %13, label %14, label %16

14:                                               ; preds = %10
  %15 = getelementptr inbounds i8, ptr %storemerge23.sink, i64 -16
  store ptr %6, ptr %.sroa.10.021, align 8
  tail call void @pfree(ptr noundef nonnull %15) #12
  br label %.loopexit

16:                                               ; preds = %10, %.lr.ph
  %.not10 = icmp eq ptr %6, null
  br i1 %.not10, label %.loopexit, label %.lr.ph, !llvm.loop !18

.loopexit:                                        ; preds = %16, %3, %14
  ret void
}